; Function Attrs: mustprogress uwtable
define void @_ZN10open_spiel8LoadGameERKNSt7__cxx1112basic_stringIcSt11char_traitsIcESaIcEEERKSt3mapIS5_NS_13GameParameterESt4lessIS5_ESaISt4pairIS6_S9_EEE(ptr dead_on_unwind noalias writable sret(%"class.std::shared_ptr") align 8 %0, ptr noundef nonnull align 8 dereferenceable(32) %1, ptr noundef nonnull align 8 dereferenceable(48) %2) local_unnamed_addr #3 personality ptr @__gxx_personality_v0 {
  %4 = alloca %"class.std::__cxx11::basic_string", align 8
  %5 = alloca %"class.absl::debian2::AlphaNum", align 8
  %6 = alloca %"class.absl::debian2::AlphaNum", align 8
  tail call void @_ZN10open_spiel14GameRegisterer12CreateByNameERKNSt7__cxx1112basic_stringIcSt11char_traitsIcESaIcEEERKSt3mapIS6_NS_13GameParameterESt4lessIS6_ESaISt4pairIS7_SA_EEE(ptr dead_on_unwind writable sret(%"class.std::shared_ptr") align 8 %0, ptr noundef nonnull align 8 dereferenceable(32) %1, ptr noundef nonnull align 8 dereferenceable(48) %2)
  %7 = load ptr, ptr %0, align 8
  %.not.i = icmp eq ptr %7, null
  br i1 %.not.i, label %8, label %16

8:                                                ; preds = %3
  store ptr @.str.13, ptr %5, align 8
  %9 = getelementptr inbounds nuw i8, ptr %5, i64 8
  store i64 23, ptr %9, align 8
  call void @_ZN4absl7debian28AlphaNumC2ISaIcEEERKNSt7__cxx1112basic_stringIcSt11char_traitsIcET_EE(ptr noundef nonnull align 8 dereferenceable(48) %6, ptr noundef nonnull align 8 dereferenceable(32) %1)
  invoke void @_ZN4absl7debian26StrCatB5cxx11ERKNS0_8AlphaNumES3_(ptr dead_on_unwind nonnull writable sret(%"class.std::__cxx11::basic_string") align 8 %4, ptr noundef nonnull align 8 dereferenceable(48) %5, ptr noundef nonnull align 8 dereferenceable(48) %6)
          to label %10 unwind label %12

10:                                               ; preds = %8
  invoke void @_ZN10open_spiel15SpielFatalErrorERKNSt7__cxx1112basic_stringIcSt11char_traitsIcESaIcEEE(ptr noundef nonnull align 8 dereferenceable(32) %4) #29
          to label %11 unwind label %14

11:                                               ; preds = %10
  unreachable

12:                                               ; preds = %8
  %13 = landingpad { ptr, i32 }
          cleanup
  br label %17

14:                                               ; preds = %10
  %15 = landingpad { ptr, i32 }
          cleanup
  call void @_ZNSt7__cxx1112basic_stringIcSt11char_traitsIcESaIcEED1Ev(ptr noundef nonnull align 8 dereferenceable(32) %4) #28
  br label %17

16:                                               ; preds = %3
  ret void

17:                                               ; preds = %14, %12
  %.pn = phi { ptr, i32 } [ %15, %14 ], [ %13, %12 ]
  call void @_ZNSt10shared_ptrIKN10open_spiel4GameEED2Ev(ptr noundef nonnull align 8 dereferenceable(16) %0) #28
  resume { ptr, i32 } %.pn
}